; ModuleID = 'source-C-CXX/11/1471.cpp'
source_filename = "source-C-CXX/11/1471.cpp"
target datalayout = "e-m:e-p270:32:32-p271:32:32-p272:64:64-i64:64-f80:128-n8:16:32:64-S128"
target triple = "x86_64-pc-linux-gnu"

%"class.std::ios_base::Init" = type { i8 }
%"class.std::basic_istream" = type { i32 (...)**, i64, %"class.std::basic_ios" }
%"class.std::basic_ios" = type { %"class.std::ios_base", %"class.std::basic_ostream"*, i8, i8, %"class.std::basic_streambuf"*, %"class.std::ctype"*, %"class.std::num_put"*, %"class.std::num_get"* }
%"class.std::ios_base" = type { i32 (...)**, i64, i64, i32, i32, i32, %"struct.std::ios_base::_Callback_list"*, %"struct.std::ios_base::_Words", [8 x %"struct.std::ios_base::_Words"], i32, %"struct.std::ios_base::_Words"*, %"class.std::locale" }
%"struct.std::ios_base::_Callback_list" = type { %"struct.std::ios_base::_Callback_list"*, void (i32, %"class.std::ios_base"*, i32)*, i32, i32 }
%"struct.std::ios_base::_Words" = type { i8*, i64 }
%"class.std::locale" = type { %"class.std::locale::_Impl"* }
%"class.std::locale::_Impl" = type { i32, %"class.std::locale::facet"**, i64, %"class.std::locale::facet"**, i8** }
%"class.std::locale::facet" = type <{ i32 (...)**, i32, [4 x i8] }>
%"class.std::basic_ostream" = type { i32 (...)**, %"class.std::basic_ios" }
%"class.std::basic_streambuf" = type { i32 (...)**, i8*, i8*, i8*, i8*, i8*, i8*, %"class.std::locale" }
%"class.std::ctype" = type <{ %"class.std::locale::facet.base", [4 x i8], %struct.__locale_struct*, i8, [7 x i8], i32*, i32*, i16*, i8, [256 x i8], [256 x i8], i8, [6 x i8] }>
%"class.std::locale::facet.base" = type <{ i32 (...)**, i32 }>
%struct.__locale_struct = type { [13 x %struct.__locale_data*], i16*, i32*, i32*, [13 x i8*] }
%struct.__locale_data = type opaque
%"class.std::num_put" = type { %"class.std::locale::facet.base", [4 x i8] }
%"class.std::num_get" = type { %"class.std::locale::facet.base", [4 x i8] }

@_ZStL8__ioinit = internal global %"class.std::ios_base::Init" zeroinitializer, align 1
@__dso_handle = external hidden global i8
@_ZSt3cin = external global %"class.std::basic_istream", align 8
@_ZSt4cout = external global %"class.std::basic_ostream", align 8
@llvm.global_ctors = appending global [1 x { i32, void ()*, i8* }] [{ i32, void ()*, i8* } { i32 65535, void ()* @_GLOBAL__sub_I_1471.cpp, i8* null }]

declare void @_ZNSt8ios_base4InitC1Ev(%"class.std::ios_base::Init"* nonnull align 1 dereferenceable(1)) unnamed_addr #0

; Function Attrs: nounwind
declare void @_ZNSt8ios_base4InitD1Ev(%"class.std::ios_base::Init"* nonnull align 1 dereferenceable(1)) unnamed_addr #1

; Function Attrs: nofree nounwind
declare i32 @__cxa_atexit(void (i8*)*, i8*, i8*) local_unnamed_addr #2

; Function Attrs: mustprogress norecurse sspstrong uwtable
define dso_local i32 @main() local_unnamed_addr #3 {
  %1 = alloca i32, align 4
  %2 = alloca i32, align 4
  %3 = alloca [20 x i32], align 16
  %4 = bitcast i32* %1 to i8*
  call void @llvm.lifetime.start.p0i8(i64 4, i8* nonnull %4) #9
  %5 = bitcast i32* %2 to i8*
  call void @llvm.lifetime.start.p0i8(i64 4, i8* nonnull %5) #9
  store i32 0, i32* %1, align 4, !tbaa !5
  %6 = bitcast [20 x i32]* %3 to i8*
  call void @llvm.lifetime.start.p0i8(i64 80, i8* nonnull %6) #9
  %7 = getelementptr inbounds [20 x i32], [20 x i32]* %3, i64 0, i64 1
  %8 = bitcast i32* %7 to i8*
  br label %9

9:                                                ; preds = %0, %139
  store i32 0, i32* %2, align 4, !tbaa !5
  call void @llvm.memset.p0i8.i64(i8* noundef nonnull align 4 dereferenceable(80) %8, i8 0, i64 80, i1 false)
  %10 = call nonnull align 8 dereferenceable(16) %"class.std::basic_istream"* @_ZNSirsERi(%"class.std::basic_istream"* nonnull align 8 dereferenceable(16) @_ZSt3cin, i32* nonnull align 4 dereferenceable(4) %1)
  %11 = load i32, i32* %1, align 4, !tbaa !5
  %12 = add i32 %11, 1
  %13 = icmp ugt i32 %12, 1
  br i1 %13, label %14, label %25

14:                                               ; preds = %9, %14
  %15 = phi i64 [ %18, %14 ], [ 1, %9 ]
  %16 = phi i32 [ %22, %14 ], [ %11, %9 ]
  %17 = phi i32 [ %19, %14 ], [ 1, %9 ]
  %18 = add nuw i64 %15, 1
  %19 = add nuw nsw i32 %17, 1
  %20 = getelementptr inbounds [20 x i32], [20 x i32]* %3, i64 0, i64 %15
  store i32 %16, i32* %20, align 4, !tbaa !5
  %21 = call nonnull align 8 dereferenceable(16) %"class.std::basic_istream"* @_ZNSirsERi(%"class.std::basic_istream"* nonnull align 8 dereferenceable(16) @_ZSt3cin, i32* nonnull align 4 dereferenceable(4) %1)
  %22 = load i32, i32* %1, align 4, !tbaa !5
  %23 = add i32 %22, 1
  %24 = icmp ugt i32 %23, 1
  br i1 %24, label %14, label %25, !llvm.loop !9

25:                                               ; preds = %14, %9
  %26 = phi i32 [ 1, %9 ], [ %19, %14 ]
  %27 = phi i32 [ %11, %9 ], [ %22, %14 ]
  %28 = icmp eq i32 %27, -1
  br i1 %28, label %145, label %29

29:                                               ; preds = %25
  %30 = add i32 %26, 1
  %31 = zext i32 %26 to i64
  %32 = zext i32 %30 to i64
  %33 = add i32 %26, -2
  br label %39

34:                                               ; preds = %98, %91, %39
  %35 = phi i32 [ %43, %39 ], [ %93, %91 ], [ %108, %98 ]
  %36 = add nuw nsw i64 %42, 1
  %37 = icmp eq i64 %47, %32
  %38 = add i32 %40, 1
  br i1 %37, label %112, label %39, !llvm.loop !11

39:                                               ; preds = %29, %34
  %40 = phi i32 [ 0, %29 ], [ %38, %34 ]
  %41 = phi i64 [ 1, %29 ], [ %47, %34 ]
  %42 = phi i64 [ 2, %29 ], [ %36, %34 ]
  %43 = phi i32 [ 0, %29 ], [ %35, %34 ]
  %44 = sub i32 %33, %40
  %45 = zext i32 %44 to i64
  %46 = add nuw nsw i64 %45, 1
  %47 = add nuw nsw i64 %41, 1
  %48 = icmp ult i64 %41, %31
  br i1 %48, label %49, label %34

49:                                               ; preds = %39
  %50 = getelementptr inbounds [20 x i32], [20 x i32]* %3, i64 0, i64 %41
  %51 = load i32, i32* %50, align 4, !tbaa !5
  %52 = shl nsw i32 %51, 1
  %53 = icmp ult i32 %44, 7
  br i1 %53, label %95, label %54

54:                                               ; preds = %49
  %55 = and i64 %46, 8589934584
  %56 = add nuw i64 %42, %55
  %57 = insertelement <4 x i32> <i32 poison, i32 0, i32 0, i32 0>, i32 %43, i32 0
  %58 = insertelement <4 x i32> poison, i32 %52, i32 0
  %59 = shufflevector <4 x i32> %58, <4 x i32> poison, <4 x i32> zeroinitializer
  %60 = insertelement <4 x i32> poison, i32 %52, i32 0
  %61 = shufflevector <4 x i32> %60, <4 x i32> poison, <4 x i32> zeroinitializer
  %62 = insertelement <4 x i32> poison, i32 %51, i32 0
  %63 = shufflevector <4 x i32> %62, <4 x i32> poison, <4 x i32> zeroinitializer
  %64 = insertelement <4 x i32> poison, i32 %51, i32 0
  %65 = shufflevector <4 x i32> %64, <4 x i32> poison, <4 x i32> zeroinitializer
  br label %66

66:                                               ; preds = %66, %54
  %67 = phi i64 [ 0, %54 ], [ %89, %66 ]
  %68 = phi <4 x i32> [ %57, %54 ], [ %87, %66 ]
  %69 = phi <4 x i32> [ zeroinitializer, %54 ], [ %88, %66 ]
  %70 = add i64 %42, %67
  %71 = getelementptr inbounds [20 x i32], [20 x i32]* %3, i64 0, i64 %70
  %72 = bitcast i32* %71 to <4 x i32>*
  %73 = load <4 x i32>, <4 x i32>* %72, align 4, !tbaa !5
  %74 = getelementptr inbounds i32, i32* %71, i64 4
  %75 = bitcast i32* %74 to <4 x i32>*
  %76 = load <4 x i32>, <4 x i32>* %75, align 4, !tbaa !5
  %77 = icmp eq <4 x i32> %73, %59
  %78 = icmp eq <4 x i32> %76, %61
  %79 = shl nsw <4 x i32> %73, <i32 1, i32 1, i32 1, i32 1>
  %80 = shl nsw <4 x i32> %76, <i32 1, i32 1, i32 1, i32 1>
  %81 = icmp eq <4 x i32> %79, %63
  %82 = icmp eq <4 x i32> %80, %65
  %83 = select <4 x i1> %77, <4 x i1> <i1 true, i1 true, i1 true, i1 true>, <4 x i1> %81
  %84 = select <4 x i1> %78, <4 x i1> <i1 true, i1 true, i1 true, i1 true>, <4 x i1> %82
  %85 = zext <4 x i1> %83 to <4 x i32>
  %86 = zext <4 x i1> %84 to <4 x i32>
  %87 = add <4 x i32> %68, %85
  %88 = add <4 x i32> %69, %86
  %89 = add nuw i64 %67, 8
  %90 = icmp eq i64 %89, %55
  br i1 %90, label %91, label %66, !llvm.loop !12

91:                                               ; preds = %66
  %92 = add <4 x i32> %88, %87
  %93 = call i32 @llvm.vector.reduce.add.v4i32(<4 x i32> %92)
  %94 = icmp eq i64 %46, %55
  br i1 %94, label %34, label %95

95:                                               ; preds = %49, %91
  %96 = phi i64 [ %42, %49 ], [ %56, %91 ]
  %97 = phi i32 [ %43, %49 ], [ %93, %91 ]
  br label %98

98:                                               ; preds = %95, %98
  %99 = phi i64 [ %109, %98 ], [ %96, %95 ]
  %100 = phi i32 [ %108, %98 ], [ %97, %95 ]
  %101 = getelementptr inbounds [20 x i32], [20 x i32]* %3, i64 0, i64 %99
  %102 = load i32, i32* %101, align 4, !tbaa !5
  %103 = icmp eq i32 %102, %52
  %104 = shl nsw i32 %102, 1
  %105 = icmp eq i32 %104, %51
  %106 = select i1 %103, i1 true, i1 %105
  %107 = zext i1 %106 to i32
  %108 = add nsw i32 %100, %107
  %109 = add nuw nsw i64 %99, 1
  %110 = trunc i64 %109 to i32
  %111 = icmp eq i32 %30, %110
  br i1 %111, label %34, label %98, !llvm.loop !14

112:                                              ; preds = %34
  store i32 %35, i32* %2, align 4, !tbaa !5
  %113 = call nonnull align 8 dereferenceable(8) %"class.std::basic_ostream"* @_ZNSolsEi(%"class.std::basic_ostream"* nonnull align 8 dereferenceable(8) @_ZSt4cout, i32 %35)
  %114 = bitcast %"class.std::basic_ostream"* %113 to i8**
  %115 = load i8*, i8** %114, align 8, !tbaa !16
  %116 = getelementptr i8, i8* %115, i64 -24
  %117 = bitcast i8* %116 to i64*
  %118 = load i64, i64* %117, align 8
  %119 = bitcast %"class.std::basic_ostream"* %113 to i8*
  %120 = add nsw i64 %118, 240
  %121 = getelementptr inbounds i8, i8* %119, i64 %120
  %122 = bitcast i8* %121 to %"class.std::ctype"**
  %123 = load %"class.std::ctype"*, %"class.std::ctype"** %122, align 8, !tbaa !18
  %124 = icmp eq %"class.std::ctype"* %123, null
  br i1 %124, label %125, label %126

125:                                              ; preds = %112
  call void @_ZSt16__throw_bad_castv() #10
  unreachable

126:                                              ; preds = %112
  %127 = getelementptr inbounds %"class.std::ctype", %"class.std::ctype"* %123, i64 0, i32 8
  %128 = load i8, i8* %127, align 8, !tbaa !22
  %129 = icmp eq i8 %128, 0
  br i1 %129, label %133, label %130

130:                                              ; preds = %126
  %131 = getelementptr inbounds %"class.std::ctype", %"class.std::ctype"* %123, i64 0, i32 9, i64 10
  %132 = load i8, i8* %131, align 1, !tbaa !24
  br label %139

133:                                              ; preds = %126
  call void @_ZNKSt5ctypeIcE13_M_widen_initEv(%"class.std::ctype"* nonnull align 8 dereferenceable(570) %123)
  %134 = bitcast %"class.std::ctype"* %123 to i8 (%"class.std::ctype"*, i8)***
  %135 = load i8 (%"class.std::ctype"*, i8)**, i8 (%"class.std::ctype"*, i8)*** %134, align 8, !tbaa !16
  %136 = getelementptr inbounds i8 (%"class.std::ctype"*, i8)*, i8 (%"class.std::ctype"*, i8)** %135, i64 6
  %137 = load i8 (%"class.std::ctype"*, i8)*, i8 (%"class.std::ctype"*, i8)** %136, align 8
  %138 = call signext i8 %137(%"class.std::ctype"* nonnull align 8 dereferenceable(570) %123, i8 signext 10)
  br label %139

139:                                              ; preds = %133, %130
  %140 = phi i8 [ %132, %130 ], [ %138, %133 ]
  %141 = call nonnull align 8 dereferenceable(8) %"class.std::basic_ostream"* @_ZNSo3putEc(%"class.std::basic_ostream"* nonnull align 8 dereferenceable(8) %113, i8 signext %140)
  %142 = call nonnull align 8 dereferenceable(8) %"class.std::basic_ostream"* @_ZNSo5flushEv(%"class.std::basic_ostream"* nonnull align 8 dereferenceable(8) %141)
  %143 = load i32, i32* %1, align 4, !tbaa !5
  %144 = icmp eq i32 %143, -1
  br i1 %144, label %145, label %9, !llvm.loop !25

145:                                              ; preds = %25, %139
  %146 = call nonnull align 8 dereferenceable(16) %"class.std::basic_istream"* @_ZNSirsERi(%"class.std::basic_istream"* nonnull align 8 dereferenceable(16) @_ZSt3cin, i32* nonnull align 4 dereferenceable(4) %2)
  call void @llvm.lifetime.end.p0i8(i64 80, i8* nonnull %6) #9
  call void @llvm.lifetime.end.p0i8(i64 4, i8* nonnull %5) #9
  call void @llvm.lifetime.end.p0i8(i64 4, i8* nonnull %4) #9
  ret i32 0
}

; Function Attrs: argmemonly mustprogress nofree nosync nounwind willreturn
declare void @llvm.lifetime.start.p0i8(i64 immarg, i8* nocapture) #4

; Function Attrs: argmemonly mustprogress nofree nounwind willreturn writeonly
declare void @llvm.memset.p0i8.i64(i8* nocapture writeonly, i8, i64, i1 immarg) #5

declare nonnull align 8 dereferenceable(16) %"class.std::basic_istream"* @_ZNSirsERi(%"class.std::basic_istream"* nonnull align 8 dereferenceable(16), i32* nonnull align 4 dereferenceable(4)) local_unnamed_addr #0

declare nonnull align 8 dereferenceable(8) %"class.std::basic_ostream"* @_ZNSolsEi(%"class.std::basic_ostream"* nonnull align 8 dereferenceable(8), i32) local_unnamed_addr #0

; Function Attrs: argmemonly mustprogress nofree nosync nounwind willreturn
declare void @llvm.lifetime.end.p0i8(i64 immarg, i8* nocapture) #4

declare nonnull align 8 dereferenceable(8) %"class.std::basic_ostream"* @_ZNSo3putEc(%"class.std::basic_ostream"* nonnull align 8 dereferenceable(8), i8 signext) local_unnamed_addr #0

declare nonnull align 8 dereferenceable(8) %"class.std::basic_ostream"* @_ZNSo5flushEv(%"class.std::basic_ostream"* nonnull align 8 dereferenceable(8)) local_unnamed_addr #0

; Function Attrs: noreturn
declare void @_ZSt16__throw_bad_castv() local_unnamed_addr #6

declare void @_ZNKSt5ctypeIcE13_M_widen_initEv(%"class.std::ctype"* nonnull align 8 dereferenceable(570)) local_unnamed_addr #0

; Function Attrs: sspstrong uwtable
define internal void @_GLOBAL__sub_I_1471.cpp() #7 section ".text.startup" {
  tail call void @_ZNSt8ios_base4InitC1Ev(%"class.std::ios_base::Init"* nonnull align 1 dereferenceable(1) @_ZStL8__ioinit)
  %1 = tail call i32 @__cxa_atexit(void (i8*)* bitcast (void (%"class.std::ios_base::Init"*)* @_ZNSt8ios_base4InitD1Ev to void (i8*)*), i8* getelementptr inbounds (%"class.std::ios_base::Init", %"class.std::ios_base::Init"* @_ZStL8__ioinit, i64 0, i32 0), i8* nonnull @__dso_handle) #9
  ret void
}

; Function Attrs: nofree nosync nounwind readnone willreturn
declare i32 @llvm.vector.reduce.add.v4i32(<4 x i32>) #8


!llvm.module.flags = !{!0, !1, !2, !3}
!llvm.ident = !{!4}

!0 = !{i32 1, !"wchar_size", i32 4}
!1 = !{i32 7, !"PIC Level", i32 2}
!2 = !{i32 7, !"PIE Level", i32 2}
!3 = !{i32 7, !"uwtable", i32 1}
!4 = !{!"clang version 13.0.0"}
!5 = !{!6, !6, i64 0}
!6 = !{!"int", !7, i64 0}
!7 = !{!"omnipotent char", !8, i64 0}
!8 = !{!"Simple C++ TBAA"}
!9 = distinct !{!9, !10}
!10 = !{!"llvm.loop.mustprogress"}
!11 = distinct !{!11, !10}
!12 = distinct !{!12, !10, !13}
!13 = !{!"llvm.loop.isvectorized", i32 1}
!14 = distinct !{!14, !10, !15, !13}
!15 = !{!"llvm.loop.unroll.runtime.disable"}
!16 = !{!17, !17, i64 0}
!17 = !{!"vtable pointer", !8, i64 0}
!18 = !{!19, !20, i64 240}
!19 = !{!"_ZTSSt9basic_iosIcSt11char_traitsIcEE", !20, i64 216, !7, i64 224, !21, i64 225, !20, i64 232, !20, i64 240, !20, i64 248, !20, i64 256}
!20 = !{!"any pointer", !7, i64 0}
!21 = !{!"bool", !7, i64 0}
!22 = !{!23, !7, i64 56}
!23 = !{!"_ZTSSt5ctypeIcE", !20, i64 16, !21, i64 24, !20, i64 32, !20, i64 40, !20, i64 48, !7, i64 56, !7, i64 57, !7, i64 313, !7, i64 569}
!24 = !{!7, !7, i64 0}
!25 = distinct !{!25, !10}
